target datalayout = "e-m:e-p270:32:32-p271:32:32-p272:64:64-i64:64-i128:128-f80:128-n8:16:32:64-S128"
target triple = "x86_64-pc-linux-gnu"

%struct.quic_conn_id_st = type { i8, [20 x i8] }
%struct.rx_state = type { ptr, ptr, %struct.ossl_qrx_args_st, ptr, ptr, %struct.quic_conn_id_st, i32 }
%struct.ossl_qrx_args_st = type { ptr, ptr, ptr, i64, i64, [3 x i64], i8 }

@.str.3 = private unnamed_addr constant [35 x i8] c"../openssl/test/quic_record_test.c\00", align 1
@.str.20 = private unnamed_addr constant [81 x i8] c"s->demux = ossl_quic_demux_new(NULL, s->args.short_conn_id_len, fake_time, NULL)\00", align 1
@.str.21 = private unnamed_addr constant [32 x i8] c"s->qrx = ossl_qrx_new(&s->args)\00", align 1

; Function Attrs: nounwind uwtable
define internal i32 @rx_state_ensure(ptr noundef %0) #0 {
  %2 = alloca i32, align 4
  %3 = alloca ptr, align 8
  store ptr %0, ptr %3, align 8, !tbaa !55
  %4 = load ptr, ptr %3, align 8, !tbaa !55
  %5 = getelementptr inbounds nuw %struct.rx_state, ptr %4, i32 0, i32 0
  %6 = load ptr, ptr %5, align 8, !tbaa !42
  %7 = icmp eq ptr %6, null
  br i1 %7, label %8, label %19

8:                                                ; preds = %1
  %9 = load ptr, ptr %3, align 8, !tbaa !55
  %10 = getelementptr inbounds nuw %struct.rx_state, ptr %9, i32 0, i32 2
  %11 = getelementptr inbounds nuw %struct.ossl_qrx_args_st, ptr %10, i32 0, i32 3
  %12 = load i64, ptr %11, align 8, !tbaa !23
  %13 = call ptr @ossl_quic_demux_new(ptr noundef null, i64 noundef %12, ptr noundef @fake_time, ptr noundef null)
  %14 = load ptr, ptr %3, align 8, !tbaa !55
  %15 = getelementptr inbounds nuw %struct.rx_state, ptr %14, i32 0, i32 0
  store ptr %13, ptr %15, align 8, !tbaa !42
  %16 = call i32 @test_ptr(ptr noundef @.str.3, i32 noundef 1782, ptr noundef @.str.20, ptr noundef %13)
  %17 = icmp ne i32 %16, 0
  br i1 %17, label %19, label %18

18:                                               ; preds = %8
  store i32 0, ptr %2, align 4
  br label %56

19:                                               ; preds = %8, %1
  %20 = load ptr, ptr %3, align 8, !tbaa !55
  %21 = getelementptr inbounds nuw %struct.rx_state, ptr %20, i32 0, i32 0
  %22 = load ptr, ptr %21, align 8, !tbaa !42
  %23 = load ptr, ptr %3, align 8, !tbaa !55
  %24 = getelementptr inbounds nuw %struct.rx_state, ptr %23, i32 0, i32 2
  %25 = getelementptr inbounds nuw %struct.ossl_qrx_args_st, ptr %24, i32 0, i32 2
  store ptr %22, ptr %25, align 8, !tbaa !59
  %26 = load ptr, ptr %3, align 8, !tbaa !55
  %27 = getelementptr inbounds nuw %struct.rx_state, ptr %26, i32 0, i32 2
  %28 = getelementptr inbounds nuw %struct.ossl_qrx_args_st, ptr %27, i32 0, i32 4
  store i64 32, ptr %28, align 8, !tbaa !60
  %29 = load ptr, ptr %3, align 8, !tbaa !55
  %30 = getelementptr inbounds nuw %struct.rx_state, ptr %29, i32 0, i32 1
  %31 = load ptr, ptr %30, align 8, !tbaa !38
  %32 = icmp eq ptr %31, null
  br i1 %32, label %33, label %42

33:                                               ; preds = %19
  %34 = load ptr, ptr %3, align 8, !tbaa !55
  %35 = getelementptr inbounds nuw %struct.rx_state, ptr %34, i32 0, i32 2
  %36 = call ptr @ossl_qrx_new(ptr noundef %35)
  %37 = load ptr, ptr %3, align 8, !tbaa !55
  %38 = getelementptr inbounds nuw %struct.rx_state, ptr %37, i32 0, i32 1
  store ptr %36, ptr %38, align 8, !tbaa !38
  %39 = call i32 @test_ptr(ptr noundef @.str.3, i32 noundef 1790, ptr noundef @.str.21, ptr noundef %36)
  %40 = icmp ne i32 %39, 0
  br i1 %40, label %42, label %41

41:                                               ; preds = %33
  store i32 0, ptr %2, align 4
  br label %56

42:                                               ; preds = %33, %19
  %43 = load ptr, ptr %3, align 8, !tbaa !55
  %44 = getelementptr inbounds nuw %struct.rx_state, ptr %43, i32 0, i32 0
  %45 = load ptr, ptr %44, align 8, !tbaa !42
  %46 = load ptr, ptr %3, align 8, !tbaa !55
  call void @ossl_quic_demux_set_default_handler(ptr noundef %45, ptr noundef @demux_default_handler, ptr noundef %46)
  %47 = load ptr, ptr %3, align 8, !tbaa !55
  %48 = getelementptr inbounds nuw %struct.rx_state, ptr %47, i32 0, i32 6
  %49 = load i32, ptr %48, align 8, !tbaa !53
  %50 = icmp ne i32 %49, 0
  br i1 %50, label %51, label %55

51:                                               ; preds = %42
  %52 = load ptr, ptr %3, align 8, !tbaa !55
  %53 = getelementptr inbounds nuw %struct.rx_state, ptr %52, i32 0, i32 1
  %54 = load ptr, ptr %53, align 8, !tbaa !38
  call void @ossl_qrx_allow_1rtt_processing(ptr noundef %54)
  br label %55

55:                                               ; preds = %51, %42
  store i32 1, ptr %2, align 4
  br label %56

56:                                               ; preds = %55, %41, %18
  %57 = load i32, ptr %2, align 4
  ret i32 %57
}