; Function Attrs: nounwind uwtable
define internal fastcc range(i32 0, 2) i32 @rx_state_ensure(ptr noundef nonnull %0) unnamed_addr #0 {
  %2 = load ptr, ptr %0, align 8, !tbaa !29
  %3 = icmp eq ptr %2, null
  br i1 %3, label %4, label %9

4:                                                ; preds = %1
  %5 = getelementptr inbounds nuw i8, ptr %0, i64 40
  %6 = load i64, ptr %5, align 8, !tbaa !31
  %7 = tail call ptr @ossl_quic_demux_new(ptr noundef null, i64 noundef %6, ptr noundef nonnull @fake_time, ptr noundef null) #10
  store ptr %7, ptr %0, align 8, !tbaa !29
  %8 = tail call i32 @test_ptr(ptr noundef nonnull @.str.3, i32 noundef 1782, ptr noundef nonnull @.str.20, ptr noundef %7) #10
  %.not = icmp eq i32 %8, 0
  br i1 %.not, label %26, label %._crit_edge

._crit_edge:                                      ; preds = %4
  %.pre = load ptr, ptr %0, align 8, !tbaa !29
  br label %9

9:                                                ; preds = %._crit_edge, %1
  %10 = phi ptr [ %.pre, %._crit_edge ], [ %2, %1 ]
  %11 = getelementptr inbounds nuw i8, ptr %0, i64 32
  store ptr %10, ptr %11, align 8, !tbaa !83
  %12 = getelementptr inbounds nuw i8, ptr %0, i64 48
  store i64 32, ptr %12, align 8, !tbaa !84
  %13 = getelementptr inbounds nuw i8, ptr %0, i64 8
  %14 = load ptr, ptr %13, align 8, !tbaa !28
  %15 = icmp eq ptr %14, null
  br i1 %15, label %16, label %20

16:                                               ; preds = %9
  %17 = getelementptr inbounds nuw i8, ptr %0, i64 16
  %18 = tail call ptr @ossl_qrx_new(ptr noundef nonnull %17) #10
  store ptr %18, ptr %13, align 8, !tbaa !28
  %19 = tail call i32 @test_ptr(ptr noundef nonnull @.str.3, i32 noundef 1790, ptr noundef nonnull @.str.21, ptr noundef %18) #10
  %.not13 = icmp eq i32 %19, 0
  br i1 %.not13, label %26, label %._crit_edge15

._crit_edge15:                                    ; preds = %16
  %.pre16 = load ptr, ptr %0, align 8, !tbaa !29
  br label %20

20:                                               ; preds = %._crit_edge15, %9
  %21 = phi ptr [ %.pre16, %._crit_edge15 ], [ %10, %9 ]
  tail call void @ossl_quic_demux_set_default_handler(ptr noundef %21, ptr noundef nonnull @demux_default_handler, ptr noundef nonnull %0) #10
  %22 = getelementptr inbounds nuw i8, ptr %0, i64 128
  %23 = load i32, ptr %22, align 8, !tbaa !52
  %.not14 = icmp eq i32 %23, 0
  br i1 %.not14, label %26, label %24

24:                                               ; preds = %20
  %25 = load ptr, ptr %13, align 8, !tbaa !28
  tail call void @ossl_qrx_allow_1rtt_processing(ptr noundef %25) #10
  br label %26

26:                                               ; preds = %20, %24, %16, %4
  %.0 = phi i32 [ 0, %4 ], [ 0, %16 ], [ 1, %24 ], [ 1, %20 ]
  ret i32 %.0
}